; Function Attrs: mustprogress nounwind uwtable
define hidden noundef zeroext i1 @_ZNK6hermes2vm15StringPrimitive6equalsEPKS1_(ptr noundef nonnull align 4 dereferenceable(8) %this, ptr noundef %other) local_unnamed_addr #0 align 2 {
entry:
  %cmp = icmp eq ptr %this, %other
  br i1 %cmp, label %return, label %if.end

if.end:                                           ; preds = %entry
  %lengthAndUniquedFlag_.i = getelementptr inbounds nuw i8, ptr %this, i64 4
  %0 = load i32, ptr %lengthAndUniquedFlag_.i, align 4
  %and.i = and i32 %0, 2147483647
  %call2 = tail call noundef zeroext i1 @_ZNK6hermes2vm15StringPrimitive11sliceEqualsEjjPKS1_(ptr noundef nonnull align 4 dereferenceable(8) %this, i32 noundef 0, i32 noundef %and.i, ptr noundef %other)
  br label %return

return:                                           ; preds = %entry, %if.end
  %retval.0 = phi i1 [ %call2, %if.end ], [ true, %entry ]
  ret i1 %retval.0
}